; Function Attrs: mustprogress uwtable
define hidden void @_ZN6google8protobuf8compiler6csharp26RepeatedEnumFieldGenerator15GenerateMembersEPNS0_2io7PrinterE(ptr noundef nonnull align 8 dereferenceable(64) %this, ptr noundef nonnull %printer) unnamed_addr #3 align 2 personality ptr @__gxx_personality_v0 {
entry:
  %variables_ = getelementptr inbounds i8, ptr %this, i64 32
  tail call void @_ZN6google8protobuf2io7Printer5PrintIN4absl12lts_2023080213flat_hash_mapISt17basic_string_viewIcSt11char_traitsIcEENSt7__cxx1112basic_stringIcS9_SaIcEEENS5_18container_internal10StringHashENSF_8StringEqESaISt4pairIKSA_SE_EEEEEEvRKT_SA_(ptr noundef nonnull align 8 dereferenceable(256) %printer, ptr noundef nonnull align 8 dereferenceable(32) %variables_, i64 148, ptr nonnull @.str)
  tail call void @_ZN6google8protobuf2io7Printer5PrintIN4absl12lts_2023080213flat_hash_mapISt17basic_string_viewIcSt11char_traitsIcEENSt7__cxx1112basic_stringIcS9_SaIcEEENS5_18container_internal10StringHashENSF_8StringEqESaISt4pairIKSA_SE_EEEEEEvRKT_SA_(ptr noundef nonnull align 8 dereferenceable(256) %printer, ptr noundef nonnull align 8 dereferenceable(32) %variables_, i64 98, ptr nonnull @.str.1)
  %descriptor_ = getelementptr inbounds i8, ptr %this, i64 16
  %0 = load ptr, ptr %descriptor_, align 8
  tail call void @_ZN6google8protobuf8compiler6csharp23WritePropertyDocCommentEPNS0_2io7PrinterEPKNS0_15FieldDescriptorE(ptr noundef nonnull %printer, ptr noundef %0)
  tail call void @_ZN6google8protobuf8compiler6csharp18FieldGeneratorBase25AddPublicMemberAttributesEPNS0_2io7PrinterE(ptr noundef nonnull align 8 dereferenceable(64) %this, ptr noundef nonnull %printer)
  tail call void @_ZN6google8protobuf2io7Printer5PrintIN4absl12lts_2023080213flat_hash_mapISt17basic_string_viewIcSt11char_traitsIcEENSt7__cxx1112basic_stringIcS9_SaIcEEENS5_18container_internal10StringHashENSF_8StringEqESaISt4pairIKSA_SE_EEEEEEvRKT_SA_(ptr noundef nonnull align 8 dereferenceable(256) %printer, ptr noundef nonnull align 8 dereferenceable(32) %variables_, i64 93, ptr nonnull @.str.2)
  ret void
}